target datalayout = "e-m:e-p270:32:32-p271:32:32-p272:64:64-i64:64-i128:128-f80:128-n8:16:32:64-S128"
target triple = "x86_64-pc-linux-gnu"

%"class.cv::WBaseStream" = type { ptr, ptr, ptr, ptr, i32, i32, ptr, i8, ptr }

; Function Attrs: mustprogress uwtable
define hidden noundef zeroext i1 @_ZN2cv11WBaseStream4openERSt6vectorIhSaIhEE(ptr noundef nonnull align 8 dereferenceable(64) %0, ptr noundef nonnull align 8 dereferenceable(24) %1) unnamed_addr #1 align 2 {
  %3 = alloca ptr, align 8
  %4 = alloca ptr, align 8
  store ptr %0, ptr %3, align 8, !tbaa !59
  store ptr %1, ptr %4, align 8, !tbaa !71
  %5 = load ptr, ptr %3, align 8
  %6 = load ptr, ptr %5, align 8, !tbaa !21
  %7 = getelementptr inbounds ptr, ptr %6, i64 4
  %8 = load ptr, ptr %7, align 8
  call void %8(ptr noundef nonnull align 8 dereferenceable(64) %5)
  %9 = load ptr, ptr %5, align 8, !tbaa !21
  %10 = getelementptr inbounds ptr, ptr %9, i64 7
  %11 = load ptr, ptr %10, align 8
  call void %11(ptr noundef nonnull align 8 dereferenceable(64) %5)
  %12 = load ptr, ptr %4, align 8, !tbaa !71
  %13 = getelementptr inbounds nuw %"class.cv::WBaseStream", ptr %5, i32 0, i32 8
  store ptr %12, ptr %13, align 8, !tbaa !70
  %14 = getelementptr inbounds nuw %"class.cv::WBaseStream", ptr %5, i32 0, i32 7
  store i8 1, ptr %14, align 8, !tbaa !69
  %15 = getelementptr inbounds nuw %"class.cv::WBaseStream", ptr %5, i32 0, i32 5
  store i32 0, ptr %15, align 4, !tbaa !67
  %16 = getelementptr inbounds nuw %"class.cv::WBaseStream", ptr %5, i32 0, i32 1
  %17 = load ptr, ptr %16, align 8, !tbaa !65
  %18 = getelementptr inbounds nuw %"class.cv::WBaseStream", ptr %5, i32 0, i32 3
  store ptr %17, ptr %18, align 8, !tbaa !61
  ret i1 true
}