; Function Attrs: mustprogress uwtable
define hidden noundef zeroext i1 @_ZN2cv11WBaseStream4openERSt6vectorIhSaIhEE(ptr noundef nonnull align 8 dereferenceable(64) %0, ptr noundef nonnull align 8 dereferenceable(24) %1) unnamed_addr #1 align 2 {
  %3 = load ptr, ptr %0, align 8, !tbaa !19
  %4 = getelementptr inbounds nuw i8, ptr %3, i64 32
  %5 = load ptr, ptr %4, align 8
  tail call void %5(ptr noundef nonnull align 8 dereferenceable(64) %0)
  %6 = load ptr, ptr %0, align 8, !tbaa !19
  %7 = getelementptr inbounds nuw i8, ptr %6, i64 56
  %8 = load ptr, ptr %7, align 8
  tail call void %8(ptr noundef nonnull align 8 dereferenceable(64) %0)
  %9 = getelementptr inbounds nuw i8, ptr %0, i64 56
  store ptr %1, ptr %9, align 8, !tbaa !52
  %10 = getelementptr inbounds nuw i8, ptr %0, i64 48
  store i8 1, ptr %10, align 8, !tbaa !51
  %11 = getelementptr inbounds nuw i8, ptr %0, i64 36
  store i32 0, ptr %11, align 4, !tbaa !49
  %12 = getelementptr inbounds nuw i8, ptr %0, i64 8
  %13 = load ptr, ptr %12, align 8, !tbaa !53
  %14 = getelementptr inbounds nuw i8, ptr %0, i64 24
  store ptr %13, ptr %14, align 8, !tbaa !55
  ret i1 true
}